target datalayout = "e-m:e-p270:32:32-p271:32:32-p272:64:64-i64:64-i128:128-f80:128-n8:16:32:64-S128"
target triple = "x86_64-pc-linux-gnu"

; Function Attrs: alwaysinline nounwind willreturn memory(none) uwtable
define internal zeroext i16 @av_bswap16(i16 noundef zeroext %0) #4 {
  %2 = alloca i16, align 2
  store i16 %0, ptr %2, align 2, !tbaa !44
  %3 = load i16, ptr %2, align 2, !tbaa !44
  %4 = zext i16 %3 to i32
  %5 = ashr i32 %4, 8
  %6 = load i16, ptr %2, align 2, !tbaa !44
  %7 = zext i16 %6 to i32
  %8 = shl i32 %7, 8
  %9 = or i32 %5, %8
  %10 = trunc i32 %9 to i16
  store i16 %10, ptr %2, align 2, !tbaa !44
  %11 = load i16, ptr %2, align 2, !tbaa !44
  ret i16 %11
}

; Function Attrs: alwaysinline nounwind uwtable
define internal void @planar_rgb16_to_uv(ptr noundef %0, ptr noundef %1, ptr noundef %2, i32 noundef %3, i32 noundef %4, i32 noundef %5, ptr noundef %6) #3 {
  %8 = alloca ptr, align 8
  %9 = alloca ptr, align 8
  %10 = alloca ptr, align 8
  %11 = alloca i32, align 4
  %12 = alloca i32, align 4
  %13 = alloca i32, align 4
  %14 = alloca ptr, align 8
  %15 = alloca i32, align 4
  %16 = alloca ptr, align 8
  %17 = alloca ptr, align 8
  %18 = alloca ptr, align 8
  %19 = alloca i32, align 4
  %20 = alloca i32, align 4
  %21 = alloca i32, align 4
  %22 = alloca i32, align 4
  %23 = alloca i32, align 4
  %24 = alloca i32, align 4
  %25 = alloca i32, align 4
  %26 = alloca i32, align 4
  %27 = alloca i32, align 4
  %28 = alloca i32, align 4
  store ptr %0, ptr %8, align 8, !tbaa !34
  store ptr %1, ptr %9, align 8, !tbaa !34
  store ptr %2, ptr %10, align 8, !tbaa !47
  store i32 %3, ptr %11, align 4, !tbaa !30
  store i32 %4, ptr %12, align 4, !tbaa !30
  store i32 %5, ptr %13, align 4, !tbaa !30
  store ptr %6, ptr %14, align 8, !tbaa !35
  call void @llvm.lifetime.start.p0(i64 4, ptr %15) #9
  call void @llvm.lifetime.start.p0(i64 8, ptr %16) #9
  %29 = load ptr, ptr %10, align 8, !tbaa !47
  store ptr %29, ptr %16, align 8, !tbaa !127
  call void @llvm.lifetime.start.p0(i64 8, ptr %17) #9
  %30 = load ptr, ptr %8, align 8, !tbaa !34
  store ptr %30, ptr %17, align 8, !tbaa !43
  call void @llvm.lifetime.start.p0(i64 8, ptr %18) #9
  %31 = load ptr, ptr %9, align 8, !tbaa !34
  store ptr %31, ptr %18, align 8, !tbaa !43
  call void @llvm.lifetime.start.p0(i64 4, ptr %19) #9
  %32 = load ptr, ptr %14, align 8, !tbaa !35
  %33 = getelementptr inbounds i32, ptr %32, i64 3
  %34 = load i32, ptr %33, align 4, !tbaa !30
  store i32 %34, ptr %19, align 4, !tbaa !30
  call void @llvm.lifetime.start.p0(i64 4, ptr %20) #9
  %35 = load ptr, ptr %14, align 8, !tbaa !35
  %36 = getelementptr inbounds i32, ptr %35, i64 4
  %37 = load i32, ptr %36, align 4, !tbaa !30
  store i32 %37, ptr %20, align 4, !tbaa !30
  call void @llvm.lifetime.start.p0(i64 4, ptr %21) #9
  %38 = load ptr, ptr %14, align 8, !tbaa !35
  %39 = getelementptr inbounds i32, ptr %38, i64 5
  %40 = load i32, ptr %39, align 4, !tbaa !30
  store i32 %40, ptr %21, align 4, !tbaa !30
  call void @llvm.lifetime.start.p0(i64 4, ptr %22) #9
  %41 = load ptr, ptr %14, align 8, !tbaa !35
  %42 = getelementptr inbounds i32, ptr %41, i64 6
  %43 = load i32, ptr %42, align 4, !tbaa !30
  store i32 %43, ptr %22, align 4, !tbaa !30
  call void @llvm.lifetime.start.p0(i64 4, ptr %23) #9
  %44 = load ptr, ptr %14, align 8, !tbaa !35
  %45 = getelementptr inbounds i32, ptr %44, i64 7
  %46 = load i32, ptr %45, align 4, !tbaa !30
  store i32 %46, ptr %23, align 4, !tbaa !30
  call void @llvm.lifetime.start.p0(i64 4, ptr %24) #9
  %47 = load ptr, ptr %14, align 8, !tbaa !35
  %48 = getelementptr inbounds i32, ptr %47, i64 8
  %49 = load i32, ptr %48, align 4, !tbaa !30
  store i32 %49, ptr %24, align 4, !tbaa !30
  call void @llvm.lifetime.start.p0(i64 4, ptr %25) #9
  %50 = load i32, ptr %12, align 4, !tbaa !30
  %51 = icmp slt i32 %50, 16
  br i1 %51, label %52, label %54

52:                                               ; preds = %7
  %53 = load i32, ptr %12, align 4, !tbaa !30
  br label %55

54:                                               ; preds = %7
  br label %55

55:                                               ; preds = %54, %52
  %56 = phi i32 [ %53, %52 ], [ 14, %54 ]
  store i32 %56, ptr %25, align 4, !tbaa !30
  store i32 0, ptr %15, align 4, !tbaa !30
  br label %57

57:                                               ; preds = %191, %55
  %58 = load i32, ptr %15, align 4, !tbaa !30
  %59 = load i32, ptr %11, align 4, !tbaa !30
  %60 = icmp slt i32 %58, %59
  br i1 %60, label %61, label %194

61:                                               ; preds = %57
  call void @llvm.lifetime.start.p0(i64 4, ptr %26) #9
  %62 = load i32, ptr %13, align 4, !tbaa !30
  %63 = icmp ne i32 %62, 0
  br i1 %63, label %64, label %74

64:                                               ; preds = %61
  %65 = load ptr, ptr %16, align 8, !tbaa !127
  %66 = getelementptr inbounds ptr, ptr %65, i64 0
  %67 = load ptr, ptr %66, align 8, !tbaa !43
  %68 = load i32, ptr %15, align 4, !tbaa !30
  %69 = sext i32 %68 to i64
  %70 = getelementptr inbounds i16, ptr %67, i64 %69
  %71 = load i16, ptr %70, align 1, !tbaa !36
  %72 = call zeroext i16 @av_bswap16(i16 noundef zeroext %71) #10
  %73 = zext i16 %72 to i32
  br label %83

74:                                               ; preds = %61
  %75 = load ptr, ptr %16, align 8, !tbaa !127
  %76 = getelementptr inbounds ptr, ptr %75, i64 0
  %77 = load ptr, ptr %76, align 8, !tbaa !43
  %78 = load i32, ptr %15, align 4, !tbaa !30
  %79 = sext i32 %78 to i64
  %80 = getelementptr inbounds i16, ptr %77, i64 %79
  %81 = load i16, ptr %80, align 1, !tbaa !36
  %82 = zext i16 %81 to i32
  br label %83

83:                                               ; preds = %74, %64
  %84 = phi i32 [ %73, %64 ], [ %82, %74 ]
  store i32 %84, ptr %26, align 4, !tbaa !30
  call void @llvm.lifetime.start.p0(i64 4, ptr %27) #9
  %85 = load i32, ptr %13, align 4, !tbaa !30
  %86 = icmp ne i32 %85, 0
  br i1 %86, label %87, label %97

87:                                               ; preds = %83
  %88 = load ptr, ptr %16, align 8, !tbaa !127
  %89 = getelementptr inbounds ptr, ptr %88, i64 1
  %90 = load ptr, ptr %89, align 8, !tbaa !43
  %91 = load i32, ptr %15, align 4, !tbaa !30
  %92 = sext i32 %91 to i64
  %93 = getelementptr inbounds i16, ptr %90, i64 %92
  %94 = load i16, ptr %93, align 1, !tbaa !36
  %95 = call zeroext i16 @av_bswap16(i16 noundef zeroext %94) #10
  %96 = zext i16 %95 to i32
  br label %106

97:                                               ; preds = %83
  %98 = load ptr, ptr %16, align 8, !tbaa !127
  %99 = getelementptr inbounds ptr, ptr %98, i64 1
  %100 = load ptr, ptr %99, align 8, !tbaa !43
  %101 = load i32, ptr %15, align 4, !tbaa !30
  %102 = sext i32 %101 to i64
  %103 = getelementptr inbounds i16, ptr %100, i64 %102
  %104 = load i16, ptr %103, align 1, !tbaa !36
  %105 = zext i16 %104 to i32
  br label %106

106:                                              ; preds = %97, %87
  %107 = phi i32 [ %96, %87 ], [ %105, %97 ]
  store i32 %107, ptr %27, align 4, !tbaa !30
  call void @llvm.lifetime.start.p0(i64 4, ptr %28) #9
  %108 = load i32, ptr %13, align 4, !tbaa !30
  %109 = icmp ne i32 %108, 0
  br i1 %109, label %110, label %120

110:                                              ; preds = %106
  %111 = load ptr, ptr %16, align 8, !tbaa !127
  %112 = getelementptr inbounds ptr, ptr %111, i64 2
  %113 = load ptr, ptr %112, align 8, !tbaa !43
  %114 = load i32, ptr %15, align 4, !tbaa !30
  %115 = sext i32 %114 to i64
  %116 = getelementptr inbounds i16, ptr %113, i64 %115
  %117 = load i16, ptr %116, align 1, !tbaa !36
  %118 = call zeroext i16 @av_bswap16(i16 noundef zeroext %117) #10
  %119 = zext i16 %118 to i32
  br label %129

120:                                              ; preds = %106
  %121 = load ptr, ptr %16, align 8, !tbaa !127
  %122 = getelementptr inbounds ptr, ptr %121, i64 2
  %123 = load ptr, ptr %122, align 8, !tbaa !43
  %124 = load i32, ptr %15, align 4, !tbaa !30
  %125 = sext i32 %124 to i64
  %126 = getelementptr inbounds i16, ptr %123, i64 %125
  %127 = load i16, ptr %126, align 1, !tbaa !36
  %128 = zext i16 %127 to i32
  br label %129

129:                                              ; preds = %120, %110
  %130 = phi i32 [ %119, %110 ], [ %128, %120 ]
  store i32 %130, ptr %28, align 4, !tbaa !30
  %131 = load i32, ptr %19, align 4, !tbaa !30
  %132 = load i32, ptr %28, align 4, !tbaa !30
  %133 = mul nsw i32 %131, %132
  %134 = load i32, ptr %20, align 4, !tbaa !30
  %135 = load i32, ptr %26, align 4, !tbaa !30
  %136 = mul nsw i32 %134, %135
  %137 = add nsw i32 %133, %136
  %138 = load i32, ptr %21, align 4, !tbaa !30
  %139 = load i32, ptr %27, align 4, !tbaa !30
  %140 = mul nsw i32 %138, %139
  %141 = add nsw i32 %137, %140
  %142 = load i32, ptr %12, align 4, !tbaa !30
  %143 = add nsw i32 15, %142
  %144 = sub nsw i32 %143, 8
  %145 = shl i32 128, %144
  %146 = add nsw i32 %141, %145
  %147 = load i32, ptr %25, align 4, !tbaa !30
  %148 = add nsw i32 15, %147
  %149 = sub nsw i32 %148, 15
  %150 = shl i32 1, %149
  %151 = add nsw i32 %146, %150
  %152 = load i32, ptr %25, align 4, !tbaa !30
  %153 = add nsw i32 15, %152
  %154 = sub nsw i32 %153, 14
  %155 = ashr i32 %151, %154
  %156 = trunc i32 %155 to i16
  %157 = load ptr, ptr %17, align 8, !tbaa !43
  %158 = load i32, ptr %15, align 4, !tbaa !30
  %159 = sext i32 %158 to i64
  %160 = getelementptr inbounds i16, ptr %157, i64 %159
  store i16 %156, ptr %160, align 2, !tbaa !44
  %161 = load i32, ptr %22, align 4, !tbaa !30
  %162 = load i32, ptr %28, align 4, !tbaa !30
  %163 = mul nsw i32 %161, %162
  %164 = load i32, ptr %23, align 4, !tbaa !30
  %165 = load i32, ptr %26, align 4, !tbaa !30
  %166 = mul nsw i32 %164, %165
  %167 = add nsw i32 %163, %166
  %168 = load i32, ptr %24, align 4, !tbaa !30
  %169 = load i32, ptr %27, align 4, !tbaa !30
  %170 = mul nsw i32 %168, %169
  %171 = add nsw i32 %167, %170
  %172 = load i32, ptr %12, align 4, !tbaa !30
  %173 = add nsw i32 15, %172
  %174 = sub nsw i32 %173, 8
  %175 = shl i32 128, %174
  %176 = add nsw i32 %171, %175
  %177 = load i32, ptr %25, align 4, !tbaa !30
  %178 = add nsw i32 15, %177
  %179 = sub nsw i32 %178, 15
  %180 = shl i32 1, %179
  %181 = add nsw i32 %176, %180
  %182 = load i32, ptr %25, align 4, !tbaa !30
  %183 = add nsw i32 15, %182
  %184 = sub nsw i32 %183, 14
  %185 = ashr i32 %181, %184
  %186 = trunc i32 %185 to i16
  %187 = load ptr, ptr %18, align 8, !tbaa !43
  %188 = load i32, ptr %15, align 4, !tbaa !30
  %189 = sext i32 %188 to i64
  %190 = getelementptr inbounds i16, ptr %187, i64 %189
  store i16 %186, ptr %190, align 2, !tbaa !44
  call void @llvm.lifetime.end.p0(i64 4, ptr %28) #9
  call void @llvm.lifetime.end.p0(i64 4, ptr %27) #9
  call void @llvm.lifetime.end.p0(i64 4, ptr %26) #9
  br label %191

191:                                              ; preds = %129
  %192 = load i32, ptr %15, align 4, !tbaa !30
  %193 = add nsw i32 %192, 1
  store i32 %193, ptr %15, align 4, !tbaa !30
  br label %57, !llvm.loop !129

194:                                              ; preds = %57
  call void @llvm.lifetime.end.p0(i64 4, ptr %25) #9
  call void @llvm.lifetime.end.p0(i64 4, ptr %24) #9
  call void @llvm.lifetime.end.p0(i64 4, ptr %23) #9
  call void @llvm.lifetime.end.p0(i64 4, ptr %22) #9
  call void @llvm.lifetime.end.p0(i64 4, ptr %21) #9
  call void @llvm.lifetime.end.p0(i64 4, ptr %20) #9
  call void @llvm.lifetime.end.p0(i64 4, ptr %19) #9
  call void @llvm.lifetime.end.p0(i64 8, ptr %18) #9
  call void @llvm.lifetime.end.p0(i64 8, ptr %17) #9
  call void @llvm.lifetime.end.p0(i64 8, ptr %16) #9
  call void @llvm.lifetime.end.p0(i64 4, ptr %15) #9
  ret void
}

; Function Attrs: nounwind uwtable
define internal void @planar_rgb12le_to_uv(ptr noundef %0, ptr noundef %1, ptr noundef %2, i32 noundef %3, ptr noundef %4, ptr noundef %5) #2 {
  %7 = alloca ptr, align 8
  %8 = alloca ptr, align 8
  %9 = alloca ptr, align 8
  %10 = alloca i32, align 4
  %11 = alloca ptr, align 8
  %12 = alloca ptr, align 8
  store ptr %0, ptr %7, align 8, !tbaa !34
  store ptr %1, ptr %8, align 8, !tbaa !34
  store ptr %2, ptr %9, align 8, !tbaa !47
  store i32 %3, ptr %10, align 4, !tbaa !30
  store ptr %4, ptr %11, align 8, !tbaa !35
  store ptr %5, ptr %12, align 8, !tbaa !31
  %13 = load ptr, ptr %7, align 8, !tbaa !34
  %14 = load ptr, ptr %8, align 8, !tbaa !34
  %15 = load ptr, ptr %9, align 8, !tbaa !47
  %16 = load i32, ptr %10, align 4, !tbaa !30
  %17 = load ptr, ptr %11, align 8, !tbaa !35
  call void @planar_rgb16_to_uv(ptr noundef %13, ptr noundef %14, ptr noundef %15, i32 noundef %16, i32 noundef 12, i32 noundef 0, ptr noundef %17)
  ret void
}